; Function Attrs: nounwind uwtable
define internal void @free_dir(ptr noundef readonly captures(none) %0) #1 {
  %2 = getelementptr inbounds nuw i8, ptr %0, i64 16
  %3 = load ptr, ptr %2, align 8, !tbaa !14
  %4 = getelementptr inbounds nuw i8, ptr %3, i64 8
  %5 = load ptr, ptr %4, align 8, !tbaa !13
  %.not = icmp eq ptr %5, null
  br i1 %.not, label %7, label %6

6:                                                ; preds = %1
  tail call void @sk_pop_free(ptr noundef nonnull %5, ptr noundef nonnull @by_dir_entry_free) #14
  br label %7

7:                                                ; preds = %6, %1
  %8 = load ptr, ptr %3, align 8, !tbaa !6
  %.not7 = icmp eq ptr %8, null
  br i1 %.not7, label %10, label %9

9:                                                ; preds = %7
  tail call void @BUF_MEM_free(ptr noundef nonnull %8) #14
  br label %10

10:                                               ; preds = %9, %7
  tail call void @free(ptr noundef nonnull %3) #14
  ret void
}